; ModuleID = 'bench/cvc5/original/matrix.ll'
source_filename = "bench/cvc5/original/matrix.ll"
target datalayout = "e-m:e-p270:32:32-p271:32:32-p272:64:64-i64:64-i128:128-f80:128-n8:16:32:64-S128"
target triple = "x86_64-pc-linux-gnu"

%"class.std::ios_base::Init" = type { i8 }

$_ZN4cvc58internal6theory5arith6linear25CoefficientChangeCallbackD2Ev = comdat any

$_ZN4cvc58internal6theory5arith6linear12NoEffectCCCBD0Ev = comdat any

$_ZTIN4cvc58internal6theory5arith6linear25CoefficientChangeCallbackE = comdat any

$_ZTSN4cvc58internal6theory5arith6linear25CoefficientChangeCallbackE = comdat any

@_ZStL8__ioinit = internal global %"class.std::ios_base::Init" zeroinitializer, align 1
@__dso_handle = external hidden global i8
@_ZTVN4cvc58internal6theory5arith6linear12NoEffectCCCBE = hidden unnamed_addr constant { [7 x ptr] } { [7 x ptr] [ptr null, ptr @_ZTIN4cvc58internal6theory5arith6linear12NoEffectCCCBE, ptr @_ZN4cvc58internal6theory5arith6linear25CoefficientChangeCallbackD2Ev, ptr @_ZN4cvc58internal6theory5arith6linear12NoEffectCCCBD0Ev, ptr @_ZN4cvc58internal6theory5arith6linear12NoEffectCCCB6updateEjjii, ptr @_ZN4cvc58internal6theory5arith6linear12NoEffectCCCB11multiplyRowEji, ptr @_ZNK4cvc58internal6theory5arith6linear12NoEffectCCCB9canUseRowEj] }, align 8
@_ZTIN4cvc58internal6theory5arith6linear12NoEffectCCCBE = hidden constant { ptr, ptr, ptr } { ptr getelementptr inbounds (ptr, ptr @_ZTVN10__cxxabiv120__si_class_type_infoE, i64 2), ptr @_ZTSN4cvc58internal6theory5arith6linear12NoEffectCCCBE, ptr @_ZTIN4cvc58internal6theory5arith6linear25CoefficientChangeCallbackE }, align 8
@_ZTVN10__cxxabiv120__si_class_type_infoE = external global [0 x ptr]
@_ZTSN4cvc58internal6theory5arith6linear12NoEffectCCCBE = hidden constant [51 x i8] c"N4cvc58internal6theory5arith6linear12NoEffectCCCBE\00", align 1
@_ZTIN4cvc58internal6theory5arith6linear25CoefficientChangeCallbackE = linkonce_odr hidden constant { ptr, ptr } { ptr getelementptr inbounds (ptr, ptr @_ZTVN10__cxxabiv117__class_type_infoE, i64 2), ptr @_ZTSN4cvc58internal6theory5arith6linear25CoefficientChangeCallbackE }, comdat, align 8
@_ZTVN10__cxxabiv117__class_type_infoE = external global [0 x ptr]
@_ZTSN4cvc58internal6theory5arith6linear25CoefficientChangeCallbackE = linkonce_odr hidden constant [64 x i8] c"N4cvc58internal6theory5arith6linear25CoefficientChangeCallbackE\00", comdat, align 1
@llvm.global_ctors = appending global [1 x { i32, ptr, ptr }] [{ i32, ptr, ptr } { i32 65535, ptr @_GLOBAL__sub_I_matrix.cpp, ptr null }]

declare void @_ZNSt8ios_base4InitC1Ev(ptr noundef nonnull align 1 dereferenceable(1)) unnamed_addr #0

; Function Attrs: nounwind
declare void @_ZNSt8ios_base4InitD1Ev(ptr noundef nonnull align 1 dereferenceable(1)) unnamed_addr #1

; Function Attrs: nofree nounwind
declare i32 @__cxa_atexit(ptr, ptr, ptr) local_unnamed_addr #2

; Function Attrs: mustprogress nofree norecurse nosync nounwind willreturn memory(none) uwtable
define hidden void @_ZN4cvc58internal6theory5arith6linear12NoEffectCCCB6updateEjjii(ptr nonnull readnone align 8 captures(none) %0, i32 %1, i32 %2, i32 %3, i32 %4) unnamed_addr #3 align 2 {
  ret void
}

; Function Attrs: mustprogress nofree norecurse nosync nounwind willreturn memory(none) uwtable
define hidden void @_ZN4cvc58internal6theory5arith6linear12NoEffectCCCB11multiplyRowEji(ptr nonnull readnone align 8 captures(none) %0, i32 %1, i32 %2) unnamed_addr #3 align 2 {
  ret void
}

; Function Attrs: mustprogress nofree norecurse nosync nounwind willreturn memory(none) uwtable
define hidden noundef zeroext i1 @_ZNK4cvc58internal6theory5arith6linear12NoEffectCCCB9canUseRowEj(ptr nonnull readnone align 8 captures(none) %0, i32 %1) unnamed_addr #3 align 2 {
  ret i1 false
}

; Function Attrs: mustprogress nounwind uwtable
define linkonce_odr hidden void @_ZN4cvc58internal6theory5arith6linear25CoefficientChangeCallbackD2Ev(ptr noundef nonnull align 8 dereferenceable(8) %0) unnamed_addr #4 comdat align 2 {
  ret void
}

; Function Attrs: inlinehint mustprogress nounwind uwtable
define linkonce_odr hidden void @_ZN4cvc58internal6theory5arith6linear12NoEffectCCCBD0Ev(ptr noundef nonnull align 8 dereferenceable(8) %0) unnamed_addr #5 comdat align 2 {
  tail call void @_ZdlPvm(ptr noundef nonnull %0, i64 noundef 8) #8
  ret void
}

; Function Attrs: nobuiltin nounwind
declare void @_ZdlPvm(ptr noundef, i64 noundef) local_unnamed_addr #6

; Function Attrs: uwtable
define internal void @_GLOBAL__sub_I_matrix.cpp() #7 section ".text.startup" {
  tail call void @_ZNSt8ios_base4InitC1Ev(ptr noundef nonnull align 1 dereferenceable(1) @_ZStL8__ioinit)
  %1 = tail call i32 @__cxa_atexit(ptr nonnull @_ZNSt8ios_base4InitD1Ev, ptr nonnull @_ZStL8__ioinit, ptr nonnull @__dso_handle) #9
  ret void
}


!llvm.module.flags = !{!0, !1, !2}

!0 = !{i32 1, !"wchar_size", i32 4}
!1 = !{i32 8, !"PIC Level", i32 2}
!2 = !{i32 7, !"uwtable", i32 2}
